ccopy_reg
_reconstructor
p0
(c__main__
Entry
p1
c__builtin__
object
p2
Ntp3
Rp4
(dp5
S'phone'
p6
g0
(c__main__
Phone
p7
g2
Ntp8
Rp9
(dp10
S'cell'
p11
S'1'
p12
sS'home'
p13
S'4'
p14
sbsS'name'
p15
S'lyn'
p16
sb.ccopy_reg
_reconstructor
p0
(c__main__
Entry
p1
c__builtin__
object
p2
Ntp3
Rp4
(dp5
S'phone'
p6
g0
(c__main__
Phone
p7
g2
Ntp8
Rp9
(dp10
S'cell'
p11
S'8'
p12
sS'home'
p13
S'4'
p14
sbsS'name'
p15
S'johnny'
p16
sb.