(dp0
S'lyn'
p1
(dp2
S'cell'
p3
S'543-653-5436'
p4
sS'home'
p5
S'123-123-1224'
p6
ssS'ajai'
p7
(dp8
g3
S'967-853-8672'
p9
sg5
S'145-846-0573'
p10
ssS'John'
p11
(dp12
g3
S'654-736-7921'
p13
sg5
S'435-675-1254'
p14
ss.